target datalayout = "e-m:e-p270:32:32-p271:32:32-p272:64:64-i64:64-i128:128-f80:128-n8:16:32:64-S128"
target triple = "x86_64-pc-linux-gnu"

%struct.WarpedMotionParams = type { [8 x i32], i16, i16, i16, i16, i8, i8 }
%struct.macroblockd = type { i32, i32, i32, i8, [3 x %struct.macroblockd_plane], %struct.TileInfo, ptr, i8, i8, i8, i8, ptr, ptr, ptr, ptr, ptr, i32, i32, i32, i32, i32, [2 x ptr], ptr, [3 x ptr], [3 x [32 x i8]], ptr, [32 x i8], ptr, ptr, [32 x i8], [3 x %struct.WienerInfo], [3 x %struct.SgrprojInfo], i8, i8, [29 x [8 x %struct.candidate_mv]], [29 x [8 x i16]], i8, i8, [8 x i8], ptr, i32, [8 x i32], [8 x i32], i32, i32, ptr, ptr, i8, [4 x i8], [4 x i8], [7 x i8], [32768 x i8], %struct.cfl_ctx, [2 x i16], ptr, [2 x ptr] }
%struct.macroblockd_plane = type { i8, i32, i32, %struct.buf_2d, [2 x %struct.buf_2d], ptr, ptr, [8 x [2 x i16]], ptr, i8, i8, [8 x [19 x ptr]], [8 x [19 x ptr]] }
%struct.buf_2d = type { ptr, ptr, i32, i32, i32 }
%struct.TileInfo = type { i32, i32, i32, i32, i32, i32 }
%struct.WienerInfo = type { [8 x i16], [8 x i16] }
%struct.SgrprojInfo = type { i32, [2 x i32] }
%struct.candidate_mv = type { %union.int_mv, %union.int_mv }
%union.int_mv = type { i32 }
%struct.cfl_ctx = type { [1024 x i16], [1024 x i16], [2 x i32], i32, [2 x [32 x i16]], i32, i32, i32, i32, i32, i32 }
%struct.MB_MODE_INFO = type <{ i8, i8, i8, i8, i32, [2 x %union.int_mv], [2 x i8], [2 x i8], %union.int_interpfilters, i8, i8, i8, i8, %struct.WarpedMotionParams, i8, i8, [6 x i8], %struct.INTERINTER_COMPOUND_DATA, [2 x i8], %struct.FILTER_INTRA_MODE_INFO, i8, i8, %struct.PALETTE_MODE_INFO, i8, i8, [16 x i8], i8, [4 x i8], i16, [7 x i8] }>
%union.int_interpfilters = type { i32 }
%struct.INTERINTER_COMPOUND_DATA = type { ptr, i8, i8, i8, i8 }
%struct.FILTER_INTRA_MODE_INFO = type { i8, i8 }
%struct.PALETTE_MODE_INFO = type { [24 x i16], [2 x i8] }
%struct.Av1ColorMapParam = type { i32, i32, i32, i32, i32, ptr, ptr, ptr }

@block_size_high = internal constant [22 x i8] c"\04\08\04\08\10\08\10 \10 @ @\80@\80\10\04 \08@\10", align 16
@block_size_wide = internal constant [22 x i8] c"\04\04\08\08\08\10\10\10   @@@\80\80\04\10\08 \10@", align 16

; Function Attrs: nounwind uwtable
define internal void @av1_get_block_dimensions(i8 noundef zeroext %0, i32 noundef %1, ptr noundef %2, ptr noundef %3, ptr noundef %4, ptr noundef %5, ptr noundef %6) #0 {
  %8 = alloca i8, align 1
  %9 = alloca i32, align 4
  %10 = alloca ptr, align 8
  %11 = alloca ptr, align 8
  %12 = alloca ptr, align 8
  %13 = alloca ptr, align 8
  %14 = alloca ptr, align 8
  %15 = alloca i32, align 4
  %16 = alloca i32, align 4
  %17 = alloca i32, align 4
  %18 = alloca i32, align 4
  %19 = alloca ptr, align 8
  %20 = alloca i32, align 4
  %21 = alloca i32, align 4
  %22 = alloca i32, align 4
  %23 = alloca i32, align 4
  store i8 %0, ptr %8, align 1
  store i32 %1, ptr %9, align 4
  store ptr %2, ptr %10, align 8
  store ptr %3, ptr %11, align 8
  store ptr %4, ptr %12, align 8
  store ptr %5, ptr %13, align 8
  store ptr %6, ptr %14, align 8
  %24 = load i8, ptr %8, align 1
  %25 = zext i8 %24 to i64
  %26 = getelementptr inbounds [22 x i8], ptr @block_size_high, i64 0, i64 %25
  %27 = load i8, ptr %26, align 1
  %28 = zext i8 %27 to i32
  store i32 %28, ptr %15, align 4
  %29 = load i8, ptr %8, align 1
  %30 = zext i8 %29 to i64
  %31 = getelementptr inbounds [22 x i8], ptr @block_size_wide, i64 0, i64 %30
  %32 = load i8, ptr %31, align 1
  %33 = zext i8 %32 to i32
  store i32 %33, ptr %16, align 4
  %34 = load ptr, ptr %10, align 8
  %35 = getelementptr inbounds nuw %struct.macroblockd, ptr %34, i32 0, i32 20
  %36 = load i32, ptr %35, align 16
  %37 = icmp sge i32 %36, 0
  br i1 %37, label %38, label %40

38:                                               ; preds = %7
  %39 = load i32, ptr %15, align 4
  br label %47

40:                                               ; preds = %7
  %41 = load ptr, ptr %10, align 8
  %42 = getelementptr inbounds nuw %struct.macroblockd, ptr %41, i32 0, i32 20
  %43 = load i32, ptr %42, align 16
  %44 = ashr i32 %43, 3
  %45 = load i32, ptr %15, align 4
  %46 = add nsw i32 %44, %45
  br label %47

47:                                               ; preds = %40, %38
  %48 = phi i32 [ %39, %38 ], [ %46, %40 ]
  store i32 %48, ptr %17, align 4
  %49 = load ptr, ptr %10, align 8
  %50 = getelementptr inbounds nuw %struct.macroblockd, ptr %49, i32 0, i32 18
  %51 = load i32, ptr %50, align 8
  %52 = icmp sge i32 %51, 0
  br i1 %52, label %53, label %55

53:                                               ; preds = %47
  %54 = load i32, ptr %16, align 4
  br label %62

55:                                               ; preds = %47
  %56 = load ptr, ptr %10, align 8
  %57 = getelementptr inbounds nuw %struct.macroblockd, ptr %56, i32 0, i32 18
  %58 = load i32, ptr %57, align 8
  %59 = ashr i32 %58, 3
  %60 = load i32, ptr %16, align 4
  %61 = add nsw i32 %59, %60
  br label %62

62:                                               ; preds = %55, %53
  %63 = phi i32 [ %54, %53 ], [ %61, %55 ]
  store i32 %63, ptr %18, align 4
  %64 = load ptr, ptr %10, align 8
  %65 = getelementptr inbounds nuw %struct.macroblockd, ptr %64, i32 0, i32 4
  %66 = load i32, ptr %9, align 4
  %67 = sext i32 %66 to i64
  %68 = getelementptr inbounds [3 x %struct.macroblockd_plane], ptr %65, i64 0, i64 %67
  store ptr %68, ptr %19, align 8
  %69 = load i32, ptr %16, align 4
  %70 = load ptr, ptr %19, align 8
  %71 = getelementptr inbounds nuw %struct.macroblockd_plane, ptr %70, i32 0, i32 1
  %72 = load i32, ptr %71, align 4
  %73 = ashr i32 %69, %72
  store i32 %73, ptr %20, align 4
  %74 = load i32, ptr %15, align 4
  %75 = load ptr, ptr %19, align 8
  %76 = getelementptr inbounds nuw %struct.macroblockd_plane, ptr %75, i32 0, i32 2
  %77 = load i32, ptr %76, align 8
  %78 = ashr i32 %74, %77
  store i32 %78, ptr %21, align 4
  %79 = load i32, ptr %9, align 4
  %80 = icmp sgt i32 %79, 0
  br i1 %80, label %81, label %84

81:                                               ; preds = %62
  %82 = load i32, ptr %20, align 4
  %83 = icmp slt i32 %82, 4
  br label %84

84:                                               ; preds = %81, %62
  %85 = phi i1 [ false, %62 ], [ %83, %81 ]
  %86 = zext i1 %85 to i32
  store i32 %86, ptr %22, align 4
  %87 = load i32, ptr %9, align 4
  %88 = icmp sgt i32 %87, 0
  br i1 %88, label %89, label %92

89:                                               ; preds = %84
  %90 = load i32, ptr %21, align 4
  %91 = icmp slt i32 %90, 4
  br label %92

92:                                               ; preds = %89, %84
  %93 = phi i1 [ false, %84 ], [ %91, %89 ]
  %94 = zext i1 %93 to i32
  store i32 %94, ptr %23, align 4
  %95 = load ptr, ptr %11, align 8
  %96 = icmp ne ptr %95, null
  br i1 %96, label %97, label %103

97:                                               ; preds = %92
  %98 = load i32, ptr %20, align 4
  %99 = load i32, ptr %22, align 4
  %100 = mul nsw i32 2, %99
  %101 = add nsw i32 %98, %100
  %102 = load ptr, ptr %11, align 8
  store i32 %101, ptr %102, align 4
  br label %103

103:                                              ; preds = %97, %92
  %104 = load ptr, ptr %12, align 8
  %105 = icmp ne ptr %104, null
  br i1 %105, label %106, label %112

106:                                              ; preds = %103
  %107 = load i32, ptr %21, align 4
  %108 = load i32, ptr %23, align 4
  %109 = mul nsw i32 2, %108
  %110 = add nsw i32 %107, %109
  %111 = load ptr, ptr %12, align 8
  store i32 %110, ptr %111, align 4
  br label %112

112:                                              ; preds = %106, %103
  %113 = load ptr, ptr %13, align 8
  %114 = icmp ne ptr %113, null
  br i1 %114, label %115, label %125

115:                                              ; preds = %112
  %116 = load i32, ptr %17, align 4
  %117 = load ptr, ptr %19, align 8
  %118 = getelementptr inbounds nuw %struct.macroblockd_plane, ptr %117, i32 0, i32 2
  %119 = load i32, ptr %118, align 8
  %120 = ashr i32 %116, %119
  %121 = load i32, ptr %23, align 4
  %122 = mul nsw i32 2, %121
  %123 = add nsw i32 %120, %122
  %124 = load ptr, ptr %13, align 8
  store i32 %123, ptr %124, align 4
  br label %125

125:                                              ; preds = %115, %112
  %126 = load ptr, ptr %14, align 8
  %127 = icmp ne ptr %126, null
  br i1 %127, label %128, label %138

128:                                              ; preds = %125
  %129 = load i32, ptr %18, align 4
  %130 = load ptr, ptr %19, align 8
  %131 = getelementptr inbounds nuw %struct.macroblockd_plane, ptr %130, i32 0, i32 1
  %132 = load i32, ptr %131, align 4
  %133 = ashr i32 %129, %132
  %134 = load i32, ptr %22, align 4
  %135 = mul nsw i32 2, %134
  %136 = add nsw i32 %133, %135
  %137 = load ptr, ptr %14, align 8
  store i32 %136, ptr %137, align 4
  br label %138

138:                                              ; preds = %128, %125
  ret void
}

; Function Attrs: nounwind uwtable
define internal void @set_color_index_map_offset(ptr noundef %0, i32 noundef %1, ptr noundef %2) #0 {
  %4 = alloca ptr, align 8
  %5 = alloca i32, align 4
  %6 = alloca ptr, align 8
  %7 = alloca %struct.Av1ColorMapParam, align 8
  %8 = alloca ptr, align 8
  store ptr %0, ptr %4, align 8
  store i32 %1, ptr %5, align 4
  store ptr %2, ptr %6, align 8
  %9 = load ptr, ptr %4, align 8
  %10 = getelementptr inbounds nuw %struct.macroblockd, ptr %9, i32 0, i32 6
  %11 = load ptr, ptr %10, align 8
  %12 = getelementptr inbounds ptr, ptr %11, i64 0
  %13 = load ptr, ptr %12, align 8
  store ptr %13, ptr %8, align 8
  %14 = load ptr, ptr %8, align 8
  %15 = getelementptr inbounds nuw %struct.MB_MODE_INFO, ptr %14, i32 0, i32 0
  %16 = load i8, ptr %15, align 8
  %17 = load i32, ptr %5, align 4
  %18 = load ptr, ptr %4, align 8
  %19 = getelementptr inbounds nuw %struct.Av1ColorMapParam, ptr %7, i32 0, i32 3
  %20 = getelementptr inbounds nuw %struct.Av1ColorMapParam, ptr %7, i32 0, i32 4
  call void @av1_get_block_dimensions(i8 noundef zeroext %16, i32 noundef %17, ptr noundef %18, ptr noundef %19, ptr noundef %20, ptr noundef null, ptr noundef null)
  %21 = getelementptr inbounds nuw %struct.Av1ColorMapParam, ptr %7, i32 0, i32 3
  %22 = load i32, ptr %21, align 4
  %23 = getelementptr inbounds nuw %struct.Av1ColorMapParam, ptr %7, i32 0, i32 4
  %24 = load i32, ptr %23, align 8
  %25 = mul nsw i32 %22, %24
  %26 = load ptr, ptr %4, align 8
  %27 = getelementptr inbounds nuw %struct.macroblockd, ptr %26, i32 0, i32 53
  %28 = load i32, ptr %5, align 4
  %29 = sext i32 %28 to i64
  %30 = getelementptr inbounds [2 x i16], ptr %27, i64 0, i64 %29
  %31 = load i16, ptr %30, align 2
  %32 = zext i16 %31 to i32
  %33 = add nsw i32 %32, %25
  %34 = trunc i32 %33 to i16
  store i16 %34, ptr %30, align 2
  ret void
}