; Function Attrs: mustprogress nofree norecurse nosync nounwind willreturn memory(read, argmem: readwrite, inaccessiblemem: none) uwtable
define internal void @set_color_index_map_offset(ptr noundef captures(none) %0, i32 noundef %1, ptr readnone captures(none) %2) #12 {
  %4 = getelementptr inbounds nuw i8, ptr %0, i64 7864
  %5 = load ptr, ptr %4, align 8
  %6 = load ptr, ptr %5, align 8
  %7 = load i8, ptr %6, align 8
  %8 = zext i8 %7 to i64
  %9 = getelementptr inbounds nuw [22 x i8], ptr @block_size_high, i64 0, i64 %8
  %10 = load i8, ptr %9, align 1
  %11 = zext i8 %10 to i32
  %12 = getelementptr inbounds nuw [22 x i8], ptr @block_size_wide, i64 0, i64 %8
  %13 = load i8, ptr %12, align 1
  %14 = zext i8 %13 to i32
  %15 = getelementptr inbounds nuw i8, ptr %0, i64 16
  %16 = sext i32 %1 to i64
  %17 = getelementptr inbounds [3 x %struct.macroblockd_plane], ptr %15, i64 0, i64 %16
  %18 = getelementptr inbounds nuw i8, ptr %17, i64 8
  %19 = load i32, ptr %18, align 8
  %20 = lshr i32 %11, %19
  %21 = icmp sgt i32 %1, 0
  %22 = icmp samesign ult i32 %20, 4
  %23 = select i1 %21, i1 %22, i1 false
  %24 = getelementptr inbounds nuw i8, ptr %17, i64 4
  %25 = load i32, ptr %24, align 4
  %26 = lshr i32 %14, %25
  %27 = icmp samesign ult i32 %26, 4
  %28 = select i1 %21, i1 %27, i1 false
  %29 = select i1 %28, i32 2, i32 0
  %30 = add nuw nsw i32 %29, %26
  %31 = select i1 %23, i32 2, i32 0
  %32 = add nuw nsw i32 %31, %20
  %33 = mul nuw nsw i32 %30, %32
  %34 = getelementptr inbounds nuw i8, ptr %0, i64 47796
  %35 = getelementptr inbounds [2 x i16], ptr %34, i64 0, i64 %16
  %36 = load i16, ptr %35, align 2
  %37 = trunc i32 %33 to i16
  %38 = add i16 %36, %37
  store i16 %38, ptr %35, align 2
  ret void
}